target datalayout = "e-m:e-p270:32:32-p271:32:32-p272:64:64-i64:64-i128:128-f80:128-n8:16:32:64-S128"
target triple = "x86_64-pc-linux-gnu"

%struct.strbuf = type { i64, i64, ptr }
%struct.repository_format = type { i32, i32, ptr, i32, i32, i32, i32, i32, i32, i32, ptr, %struct.string_list, %struct.string_list }
%struct.string_list = type { ptr, i64, i64, i8, ptr }
%struct.string_list_item = type { ptr, ptr }

@the_repository = external global ptr, align 8
@__const.upgrade_repository_format.sb = private unnamed_addr constant %struct.strbuf { i64 0, i64 0, ptr @strbuf_slopbuf }, align 8
@__const.upgrade_repository_format.err = private unnamed_addr constant %struct.strbuf { i64 0, i64 0, ptr @strbuf_slopbuf }, align 8
@__const.upgrade_repository_format.repo_version = private unnamed_addr constant %struct.strbuf { i64 0, i64 0, ptr @strbuf_slopbuf }, align 8
@.str.22 = private unnamed_addr constant [7 x i8] c"config\00", align 1
@.str.23 = private unnamed_addr constant [51 x i8] c"cannot upgrade repository format from %d to %d: %s\00", align 1
@.str.24 = private unnamed_addr constant [55 x i8] c"cannot upgrade repository format: unknown extension %s\00", align 1
@.str.25 = private unnamed_addr constant [3 x i8] c"%d\00", align 1
@.str.26 = private unnamed_addr constant [29 x i8] c"core.repositoryformatversion\00", align 1

; Function Attrs: nounwind uwtable
define internal void @init_repository_format(ptr noundef %0) #0 {
  %2 = alloca ptr, align 8
  %3 = alloca %struct.repository_format, align 8
  store ptr %0, ptr %2, align 8, !tbaa !45
  call void @llvm.lifetime.start.p0(i64 136, ptr %3) #13
  call void @llvm.memset.p0.i64(ptr align 8 %3, i8 0, i64 136, i1 false)
  %4 = getelementptr inbounds { i32, i32, ptr, i32, i32, i32, i32, i32, i32, i32, [4 x i8], ptr, { ptr, i64, i64, i8, [7 x i8], ptr }, { ptr, i64, i64, i8, [7 x i8], ptr } }, ptr %3, i32 0, i32 0
  store i32 -1, ptr %4, align 8
  %5 = getelementptr inbounds { i32, i32, ptr, i32, i32, i32, i32, i32, i32, i32, [4 x i8], ptr, { ptr, i64, i64, i8, [7 x i8], ptr }, { ptr, i64, i64, i8, [7 x i8], ptr } }, ptr %3, i32 0, i32 5
  store i32 -1, ptr %5, align 8
  %6 = getelementptr inbounds { i32, i32, ptr, i32, i32, i32, i32, i32, i32, i32, [4 x i8], ptr, { ptr, i64, i64, i8, [7 x i8], ptr }, { ptr, i64, i64, i8, [7 x i8], ptr } }, ptr %3, i32 0, i32 6
  store i32 1, ptr %6, align 4
  %7 = getelementptr inbounds { i32, i32, ptr, i32, i32, i32, i32, i32, i32, i32, [4 x i8], ptr, { ptr, i64, i64, i8, [7 x i8], ptr }, { ptr, i64, i64, i8, [7 x i8], ptr } }, ptr %3, i32 0, i32 8
  store i32 1, ptr %7, align 4
  %8 = getelementptr inbounds { i32, i32, ptr, i32, i32, i32, i32, i32, i32, i32, [4 x i8], ptr, { ptr, i64, i64, i8, [7 x i8], ptr }, { ptr, i64, i64, i8, [7 x i8], ptr } }, ptr %3, i32 0, i32 12
  %9 = getelementptr inbounds { ptr, i64, i64, i8, [7 x i8], ptr }, ptr %8, i32 0, i32 3
  store i8 1, ptr %9, align 8
  %10 = getelementptr inbounds { i32, i32, ptr, i32, i32, i32, i32, i32, i32, i32, [4 x i8], ptr, { ptr, i64, i64, i8, [7 x i8], ptr }, { ptr, i64, i64, i8, [7 x i8], ptr } }, ptr %3, i32 0, i32 13
  %11 = getelementptr inbounds { ptr, i64, i64, i8, [7 x i8], ptr }, ptr %10, i32 0, i32 3
  store i8 1, ptr %11, align 8
  %12 = load ptr, ptr %2, align 8, !tbaa !45
  call void @llvm.memcpy.p0.p0.i64(ptr align 8 %12, ptr align 8 %3, i64 136, i1 false)
  call void @llvm.lifetime.end.p0(i64 136, ptr %3) #13
  ret void
}

; Function Attrs: nounwind uwtable
define dso_local void @clear_repository_format(ptr noundef %0) #0 {
  %2 = alloca ptr, align 8
  store ptr %0, ptr %2, align 8, !tbaa !45
  %3 = load ptr, ptr %2, align 8, !tbaa !45
  %4 = getelementptr inbounds nuw %struct.repository_format, ptr %3, i32 0, i32 11
  call void @string_list_clear(ptr noundef %4, i32 noundef 0)
  %5 = load ptr, ptr %2, align 8, !tbaa !45
  %6 = getelementptr inbounds nuw %struct.repository_format, ptr %5, i32 0, i32 12
  call void @string_list_clear(ptr noundef %6, i32 noundef 0)
  %7 = load ptr, ptr %2, align 8, !tbaa !45
  %8 = getelementptr inbounds nuw %struct.repository_format, ptr %7, i32 0, i32 10
  %9 = load ptr, ptr %8, align 8, !tbaa !51
  call void @free(ptr noundef %9) #13
  %10 = load ptr, ptr %2, align 8, !tbaa !45
  %11 = getelementptr inbounds nuw %struct.repository_format, ptr %10, i32 0, i32 2
  %12 = load ptr, ptr %11, align 8, !tbaa !52
  call void @free(ptr noundef %12) #13
  %13 = load ptr, ptr %2, align 8, !tbaa !45
  call void @init_repository_format(ptr noundef %13)
  ret void
}

; Function Attrs: inlinehint nounwind uwtable
define internal void @git_config_set(ptr noundef %0, ptr noundef %1) #2 {
  %3 = alloca ptr, align 8
  %4 = alloca ptr, align 8
  store ptr %0, ptr %3, align 8, !tbaa !4
  store ptr %1, ptr %4, align 8, !tbaa !4
  %5 = load ptr, ptr @the_repository, align 8, !tbaa !14
  %6 = load ptr, ptr %3, align 8, !tbaa !4
  %7 = load ptr, ptr %4, align 8, !tbaa !4
  call void @repo_config_set(ptr noundef %5, ptr noundef %6, ptr noundef %7)
  ret void
}

; Function Attrs: inlinehint nounwind uwtable
define internal i32 @const_error() #2 {
  ret i32 -1
}

; Function Attrs: nounwind uwtable
define dso_local i32 @upgrade_repository_format(i32 noundef %0) #0 {
  %2 = alloca i32, align 4
  %3 = alloca %struct.strbuf, align 8
  %4 = alloca %struct.strbuf, align 8
  %5 = alloca %struct.strbuf, align 8
  %6 = alloca %struct.repository_format, align 8
  %7 = alloca i32, align 4
  store i32 %0, ptr %2, align 4, !tbaa !9
  call void @llvm.lifetime.start.p0(i64 24, ptr %3) #13
  call void @llvm.memcpy.p0.p0.i64(ptr align 8 %3, ptr align 8 @__const.upgrade_repository_format.sb, i64 24, i1 false)
  call void @llvm.lifetime.start.p0(i64 24, ptr %4) #13
  call void @llvm.memcpy.p0.p0.i64(ptr align 8 %4, ptr align 8 @__const.upgrade_repository_format.err, i64 24, i1 false)
  call void @llvm.lifetime.start.p0(i64 24, ptr %5) #13
  call void @llvm.memcpy.p0.p0.i64(ptr align 8 %5, ptr align 8 @__const.upgrade_repository_format.repo_version, i64 24, i1 false)
  call void @llvm.lifetime.start.p0(i64 136, ptr %6) #13
  call void @llvm.memset.p0.i64(ptr align 8 %6, i8 0, i64 136, i1 false)
  %8 = getelementptr inbounds { i32, i32, ptr, i32, i32, i32, i32, i32, i32, i32, [4 x i8], ptr, { ptr, i64, i64, i8, [7 x i8], ptr }, { ptr, i64, i64, i8, [7 x i8], ptr } }, ptr %6, i32 0, i32 0
  store i32 -1, ptr %8, align 8
  %9 = getelementptr inbounds { i32, i32, ptr, i32, i32, i32, i32, i32, i32, i32, [4 x i8], ptr, { ptr, i64, i64, i8, [7 x i8], ptr }, { ptr, i64, i64, i8, [7 x i8], ptr } }, ptr %6, i32 0, i32 5
  store i32 -1, ptr %9, align 8
  %10 = getelementptr inbounds { i32, i32, ptr, i32, i32, i32, i32, i32, i32, i32, [4 x i8], ptr, { ptr, i64, i64, i8, [7 x i8], ptr }, { ptr, i64, i64, i8, [7 x i8], ptr } }, ptr %6, i32 0, i32 6
  store i32 1, ptr %10, align 4
  %11 = getelementptr inbounds { i32, i32, ptr, i32, i32, i32, i32, i32, i32, i32, [4 x i8], ptr, { ptr, i64, i64, i8, [7 x i8], ptr }, { ptr, i64, i64, i8, [7 x i8], ptr } }, ptr %6, i32 0, i32 8
  store i32 1, ptr %11, align 4
  %12 = getelementptr inbounds { i32, i32, ptr, i32, i32, i32, i32, i32, i32, i32, [4 x i8], ptr, { ptr, i64, i64, i8, [7 x i8], ptr }, { ptr, i64, i64, i8, [7 x i8], ptr } }, ptr %6, i32 0, i32 12
  %13 = getelementptr inbounds { ptr, i64, i64, i8, [7 x i8], ptr }, ptr %12, i32 0, i32 3
  store i8 1, ptr %13, align 8
  %14 = getelementptr inbounds { i32, i32, ptr, i32, i32, i32, i32, i32, i32, i32, [4 x i8], ptr, { ptr, i64, i64, i8, [7 x i8], ptr }, { ptr, i64, i64, i8, [7 x i8], ptr } }, ptr %6, i32 0, i32 13
  %15 = getelementptr inbounds { ptr, i64, i64, i8, [7 x i8], ptr }, ptr %14, i32 0, i32 3
  store i8 1, ptr %15, align 8
  call void @llvm.lifetime.start.p0(i64 4, ptr %7) #13
  %16 = load ptr, ptr @the_repository, align 8, !tbaa !14
  call void (ptr, ptr, ptr, ...) @strbuf_git_common_path(ptr noundef %3, ptr noundef %16, ptr noundef @.str.22)
  %17 = getelementptr inbounds nuw %struct.strbuf, ptr %3, i32 0, i32 2
  %18 = load ptr, ptr %17, align 8, !tbaa !18
  %19 = call i32 @read_repository_format(ptr noundef %6, ptr noundef %18)
  call void @strbuf_release(ptr noundef %3)
  %20 = getelementptr inbounds nuw %struct.repository_format, ptr %6, i32 0, i32 0
  %21 = load i32, ptr %20, align 8, !tbaa !37
  %22 = load i32, ptr %2, align 4, !tbaa !9
  %23 = icmp sge i32 %21, %22
  br i1 %23, label %24, label %25

24:                                               ; preds = %1
  store i32 0, ptr %7, align 4, !tbaa !9
  br label %58

25:                                               ; preds = %1
  %26 = call i32 @verify_repository_format(ptr noundef %6, ptr noundef %4)
  %27 = icmp slt i32 %26, 0
  br i1 %27, label %28, label %36

28:                                               ; preds = %25
  %29 = getelementptr inbounds nuw %struct.repository_format, ptr %6, i32 0, i32 0
  %30 = load i32, ptr %29, align 8, !tbaa !37
  %31 = load i32, ptr %2, align 4, !tbaa !9
  %32 = getelementptr inbounds nuw %struct.strbuf, ptr %4, i32 0, i32 2
  %33 = load ptr, ptr %32, align 8, !tbaa !18
  %34 = call i32 (ptr, ...) @error(ptr noundef @.str.23, i32 noundef %30, i32 noundef %31, ptr noundef %33)
  %35 = call i32 @const_error()
  store i32 %35, ptr %7, align 4, !tbaa !9
  br label %58

36:                                               ; preds = %25
  %37 = getelementptr inbounds nuw %struct.repository_format, ptr %6, i32 0, i32 0
  %38 = load i32, ptr %37, align 8, !tbaa !37
  %39 = icmp ne i32 %38, 0
  br i1 %39, label %54, label %40

40:                                               ; preds = %36
  %41 = getelementptr inbounds nuw %struct.repository_format, ptr %6, i32 0, i32 11
  %42 = getelementptr inbounds nuw %struct.string_list, ptr %41, i32 0, i32 1
  %43 = load i64, ptr %42, align 8, !tbaa !41
  %44 = icmp ne i64 %43, 0
  br i1 %44, label %45, label %54

45:                                               ; preds = %40
  %46 = getelementptr inbounds nuw %struct.repository_format, ptr %6, i32 0, i32 11
  %47 = getelementptr inbounds nuw %struct.string_list, ptr %46, i32 0, i32 0
  %48 = load ptr, ptr %47, align 8, !tbaa !42
  %49 = getelementptr inbounds %struct.string_list_item, ptr %48, i64 0
  %50 = getelementptr inbounds nuw %struct.string_list_item, ptr %49, i32 0, i32 0
  %51 = load ptr, ptr %50, align 8, !tbaa !43
  %52 = call i32 (ptr, ...) @error(ptr noundef @.str.24, ptr noundef %51)
  %53 = call i32 @const_error()
  store i32 %53, ptr %7, align 4, !tbaa !9
  br label %58

54:                                               ; preds = %40, %36
  %55 = load i32, ptr %2, align 4, !tbaa !9
  call void (ptr, ptr, ...) @strbuf_addf(ptr noundef %5, ptr noundef @.str.25, i32 noundef %55)
  %56 = getelementptr inbounds nuw %struct.strbuf, ptr %5, i32 0, i32 2
  %57 = load ptr, ptr %56, align 8, !tbaa !18
  call void @git_config_set(ptr noundef @.str.26, ptr noundef %57)
  store i32 1, ptr %7, align 4, !tbaa !9
  br label %58

58:                                               ; preds = %54, %45, %28, %24
  call void @clear_repository_format(ptr noundef %6)
  call void @strbuf_release(ptr noundef %5)
  call void @strbuf_release(ptr noundef %4)
  %59 = load i32, ptr %7, align 4, !tbaa !9
  call void @llvm.lifetime.end.p0(i64 4, ptr %7) #13
  call void @llvm.lifetime.end.p0(i64 136, ptr %6) #13
  call void @llvm.lifetime.end.p0(i64 24, ptr %5) #13
  call void @llvm.lifetime.end.p0(i64 24, ptr %4) #13
  call void @llvm.lifetime.end.p0(i64 24, ptr %3) #13
  ret i32 %59
}