; Function Attrs: nounwind uwtable
define dso_local range(i32 -1, 2) i32 @upgrade_repository_format(i32 noundef %0) local_unnamed_addr #0 {
  %2 = alloca %struct.strbuf, align 8
  %3 = alloca %struct.strbuf, align 8
  %4 = alloca %struct.strbuf, align 8
  %5 = alloca %struct.repository_format, align 8
  call void @llvm.lifetime.start.p0(i64 24, ptr nonnull %2) #25
  call void @llvm.memcpy.p0.p0.i64(ptr noundef nonnull align 8 dereferenceable(24) %2, ptr noundef nonnull align 8 dereferenceable(24) @__const.create_object_directory.path, i64 24, i1 false)
  call void @llvm.lifetime.start.p0(i64 24, ptr nonnull %3) #25
  call void @llvm.memcpy.p0.p0.i64(ptr noundef nonnull align 8 dereferenceable(24) %3, ptr noundef nonnull align 8 dereferenceable(24) @__const.create_object_directory.path, i64 24, i1 false)
  call void @llvm.lifetime.start.p0(i64 24, ptr nonnull %4) #25
  call void @llvm.memcpy.p0.p0.i64(ptr noundef nonnull align 8 dereferenceable(24) %4, ptr noundef nonnull align 8 dereferenceable(24) @__const.create_object_directory.path, i64 24, i1 false)
  call void @llvm.lifetime.start.p0(i64 136, ptr nonnull %5) #25
  call void @llvm.memset.p0.i64(ptr noundef nonnull align 8 dereferenceable(136) %5, i8 0, i64 136, i1 false)
  store i32 -1, ptr %5, align 8
  %6 = getelementptr inbounds nuw i8, ptr %5, i64 24
  store i32 -1, ptr %6, align 8
  %7 = getelementptr inbounds nuw i8, ptr %5, i64 28
  store i32 1, ptr %7, align 4
  %8 = getelementptr inbounds nuw i8, ptr %5, i64 36
  store i32 1, ptr %8, align 4
  %9 = getelementptr inbounds nuw i8, ptr %5, i64 56
  %10 = getelementptr inbounds nuw i8, ptr %5, i64 80
  store i8 1, ptr %10, align 8
  %11 = getelementptr inbounds nuw i8, ptr %5, i64 120
  store i8 1, ptr %11, align 8
  %12 = load ptr, ptr @the_repository, align 8, !tbaa !9
  call void (ptr, ptr, ptr, ...) @strbuf_git_common_path(ptr noundef nonnull %2, ptr noundef %12, ptr noundef nonnull @.str.22) #25
  %13 = getelementptr inbounds nuw i8, ptr %2, i64 16
  %14 = load ptr, ptr %13, align 8, !tbaa !14
  %15 = call i32 @read_repository_format(ptr noundef nonnull %5, ptr noundef %14)
  call void @strbuf_release(ptr noundef nonnull %2) #25
  %16 = load i32, ptr %5, align 8, !tbaa !29
  %.not = icmp slt i32 %16, %0
  br i1 %.not, label %17, label %38

17:                                               ; preds = %1
  %18 = call i32 @verify_repository_format(ptr noundef nonnull %5, ptr noundef nonnull %3)
  %19 = icmp slt i32 %18, 0
  %20 = load i32, ptr %5, align 8, !tbaa !29
  br i1 %19, label %21, label %25

21:                                               ; preds = %17
  %22 = getelementptr inbounds nuw i8, ptr %3, i64 16
  %23 = load ptr, ptr %22, align 8, !tbaa !14
  %24 = call i32 (ptr, ...) @error(ptr noundef nonnull @.str.23, i32 noundef %20, i32 noundef %0, ptr noundef %23) #25
  br label %38

25:                                               ; preds = %17
  %26 = icmp eq i32 %20, 0
  %27 = getelementptr inbounds nuw i8, ptr %5, i64 64
  %28 = load i64, ptr %27, align 8
  %29 = icmp ne i64 %28, 0
  %or.cond = select i1 %26, i1 %29, i1 false
  br i1 %or.cond, label %30, label %34

30:                                               ; preds = %25
  %31 = load ptr, ptr %9, align 8, !tbaa !33
  %32 = load ptr, ptr %31, align 8, !tbaa !34
  %33 = call i32 (ptr, ...) @error(ptr noundef nonnull @.str.24, ptr noundef %32) #25
  br label %38

34:                                               ; preds = %25
  call void (ptr, ptr, ...) @strbuf_addf(ptr noundef nonnull %4, ptr noundef nonnull @.str.25, i32 noundef %0) #25
  %35 = getelementptr inbounds nuw i8, ptr %4, i64 16
  %36 = load ptr, ptr %35, align 8, !tbaa !14
  %37 = load ptr, ptr @the_repository, align 8, !tbaa !9
  call void @repo_config_set(ptr noundef %37, ptr noundef nonnull @.str.26, ptr noundef %36) #25
  br label %38

38:                                               ; preds = %1, %34, %30, %21
  %.0 = phi i32 [ -1, %21 ], [ -1, %30 ], [ 1, %34 ], [ 0, %1 ]
  call void @string_list_clear(ptr noundef nonnull %9, i32 noundef 0) #25
  %39 = getelementptr inbounds nuw i8, ptr %5, i64 96
  call void @string_list_clear(ptr noundef nonnull %39, i32 noundef 0) #25
  %40 = getelementptr inbounds nuw i8, ptr %5, i64 48
  %41 = load ptr, ptr %40, align 8, !tbaa !36
  call void @free(ptr noundef %41) #25
  %42 = getelementptr inbounds nuw i8, ptr %5, i64 8
  %43 = load ptr, ptr %42, align 8, !tbaa !37
  call void @free(ptr noundef %43) #25
  store i32 -1, ptr %5, align 8
  %.sroa.5.0..sroa_idx.i.i = getelementptr inbounds nuw i8, ptr %5, i64 4
  call void @llvm.memset.p0.i64(ptr noundef nonnull align 4 dereferenceable(20) %.sroa.5.0..sroa_idx.i.i, i8 0, i64 20, i1 false)
  store i32 -1, ptr %6, align 8
  store i32 1, ptr %7, align 4
  %.sroa.7.0..sroa_idx.i.i = getelementptr inbounds nuw i8, ptr %5, i64 32
  store i32 0, ptr %.sroa.7.0..sroa_idx.i.i, align 8
  store i32 1, ptr %8, align 4
  %.sroa.8.0..sroa_idx.i.i = getelementptr inbounds nuw i8, ptr %5, i64 40
  call void @llvm.memset.p0.i64(ptr noundef nonnull align 8 dereferenceable(40) %.sroa.8.0..sroa_idx.i.i, i8 0, i64 40, i1 false)
  store i8 1, ptr %10, align 8
  %.sroa.9.0..sroa_idx.i.i = getelementptr inbounds nuw i8, ptr %5, i64 81
  call void @llvm.memset.p0.i64(ptr noundef nonnull align 1 dereferenceable(39) %.sroa.9.0..sroa_idx.i.i, i8 0, i64 39, i1 false)
  store i8 1, ptr %11, align 8
  %.sroa.10.0..sroa_idx.i.i = getelementptr inbounds nuw i8, ptr %5, i64 121
  call void @llvm.memset.p0.i64(ptr noundef nonnull align 1 dereferenceable(15) %.sroa.10.0..sroa_idx.i.i, i8 0, i64 15, i1 false)
  call void @strbuf_release(ptr noundef nonnull %4) #25
  call void @strbuf_release(ptr noundef nonnull %3) #25
  call void @llvm.lifetime.end.p0(i64 136, ptr nonnull %5) #25
  call void @llvm.lifetime.end.p0(i64 24, ptr nonnull %4) #25
  call void @llvm.lifetime.end.p0(i64 24, ptr nonnull %3) #25
  call void @llvm.lifetime.end.p0(i64 24, ptr nonnull %2) #25
  ret i32 %.0
}